; Function Attrs: nounwind uwtable
define dso_local noundef ptr @decNumberAbs(ptr noundef returned %0, ptr noundef captures(address) %1, ptr noundef %2) local_unnamed_addr #4 {
  %4 = alloca %struct.decNumber, align 4
  %5 = alloca i32, align 4
  call void @llvm.lifetime.start.p0(i64 12, ptr nonnull %4) #18
  call void @llvm.lifetime.start.p0(i64 4, ptr nonnull %5) #18
  store i32 0, ptr %5, align 4, !tbaa !16
  %6 = getelementptr inbounds nuw i8, ptr %4, i64 8
  store i8 0, ptr %6, align 4, !tbaa !4
  %7 = getelementptr inbounds nuw i8, ptr %4, i64 4
  store i32 1, ptr %4, align 4, !tbaa !10
  %8 = getelementptr inbounds nuw i8, ptr %4, i64 10
  store i16 0, ptr %8, align 2, !tbaa !11
  %9 = getelementptr inbounds nuw i8, ptr %1, i64 4
  %10 = load i32, ptr %9, align 4, !tbaa !9
  store i32 %10, ptr %7, align 4, !tbaa !9
  %11 = getelementptr inbounds nuw i8, ptr %1, i64 8
  %12 = load i8, ptr %11, align 4, !tbaa !4
  %13 = and i8 %12, -128
  %14 = call fastcc ptr @decAddOp(ptr noundef %0, ptr noundef nonnull %4, ptr noundef %1, ptr noundef %2, i8 noundef zeroext %13, ptr noundef %5)
  %15 = load i32, ptr %5, align 4, !tbaa !16
  %.not = icmp eq i32 %15, 0
  br i1 %.not, label %27, label %16

16:                                               ; preds = %3
  %17 = and i32 %15, 221
  %.not.i = icmp eq i32 %17, 0
  br i1 %.not.i, label %decStatus.exit, label %18

18:                                               ; preds = %16
  %19 = and i32 %15, 1073741824
  %.not6.i = icmp eq i32 %19, 0
  br i1 %.not6.i, label %22, label %20

20:                                               ; preds = %18
  %21 = and i32 %15, -1073741825
  br label %decStatus.exit

22:                                               ; preds = %18
  %23 = getelementptr inbounds nuw i8, ptr %0, i64 8
  %24 = getelementptr inbounds nuw i8, ptr %0, i64 4
  store i32 0, ptr %24, align 4, !tbaa !9
  store i32 1, ptr %0, align 4, !tbaa !10
  %25 = getelementptr inbounds nuw i8, ptr %0, i64 10
  store i16 0, ptr %25, align 2, !tbaa !11
  store i8 32, ptr %23, align 4, !tbaa !4
  br label %decStatus.exit

decStatus.exit:                                   ; preds = %16, %20, %22
  %.0.i = phi i32 [ %21, %20 ], [ %15, %22 ], [ %15, %16 ]
  %26 = call ptr @decContextSetStatus(ptr noundef %2, i32 noundef %.0.i) #18
  br label %27

27:                                               ; preds = %decStatus.exit, %3
  call void @llvm.lifetime.end.p0(i64 4, ptr nonnull %5) #18
  call void @llvm.lifetime.end.p0(i64 12, ptr nonnull %4) #18
  ret ptr %0
}